target datalayout = "e-m:e-p270:32:32-p271:32:32-p272:64:64-i64:64-i128:128-f80:128-n8:16:32:64-S128"
target triple = "x86_64-pc-linux-gnu"

%class.GrowableArrayView = type { %class.GrowableArrayBase, ptr }
%class.GrowableArrayBase = type { i32, i32 }

; Function Attrs: mustprogress nounwind uwtable
define linkonce_odr hidden noundef ptr @_ZNK17GrowableArrayViewIP10BlockBeginE6adr_atEi(ptr noundef nonnull align 8 dereferenceable(16) %0, i32 noundef %1) #1 comdat align 2 {
  %3 = alloca ptr, align 8
  %4 = alloca i32, align 4
  store ptr %0, ptr %3, align 8
  store i32 %1, ptr %4, align 4
  %5 = load ptr, ptr %3, align 8
  %6 = getelementptr inbounds %class.GrowableArrayView, ptr %5, i32 0, i32 1
  %7 = load ptr, ptr %6, align 8
  %8 = load i32, ptr %4, align 4
  %9 = sext i32 %8 to i64
  %10 = getelementptr inbounds ptr, ptr %7, i64 %9
  ret ptr %10
}

; Function Attrs: mustprogress nounwind uwtable
define linkonce_odr hidden noundef i32 @_ZNK17GrowableArrayBase6lengthEv(ptr noundef nonnull align 4 dereferenceable(8) %0) #1 comdat align 2 {
  %2 = alloca ptr, align 8
  store ptr %0, ptr %2, align 8
  %3 = load ptr, ptr %2, align 8
  %4 = getelementptr inbounds %class.GrowableArrayBase, ptr %3, i32 0, i32 0
  %5 = load i32, ptr %4, align 4
  ret i32 %5
}

; Function Attrs: mustprogress nounwind uwtable
define hidden void @_ZN10StateSplit10substituteER9BlockListP10BlockBeginS3_(ptr noundef nonnull align 8 dereferenceable(24) %0, ptr noundef %1, ptr noundef %2) #1 align 2 {
  %4 = alloca ptr, align 8
  %5 = alloca ptr, align 8
  %6 = alloca ptr, align 8
  %7 = alloca i32, align 4
  %8 = alloca ptr, align 8
  store ptr %0, ptr %4, align 8
  store ptr %1, ptr %5, align 8
  store ptr %2, ptr %6, align 8
  store i32 0, ptr %7, align 4
  br label %9

9:                                                ; preds = %26, %3
  %10 = load i32, ptr %7, align 4
  %11 = load ptr, ptr %4, align 8
  %12 = call noundef i32 @_ZNK17GrowableArrayBase6lengthEv(ptr noundef nonnull align 4 dereferenceable(8) %11)
  %13 = icmp slt i32 %10, %12
  br i1 %13, label %14, label %29

14:                                               ; preds = %9
  %15 = load ptr, ptr %4, align 8
  %16 = load i32, ptr %7, align 4
  %17 = call noundef ptr @_ZNK17GrowableArrayViewIP10BlockBeginE6adr_atEi(ptr noundef nonnull align 8 dereferenceable(16) %15, i32 noundef %16)
  store ptr %17, ptr %8, align 8
  %18 = load ptr, ptr %8, align 8
  %19 = load ptr, ptr %18, align 8
  %20 = load ptr, ptr %5, align 8
  %21 = icmp eq ptr %19, %20
  br i1 %21, label %22, label %25

22:                                               ; preds = %14
  %23 = load ptr, ptr %6, align 8
  %24 = load ptr, ptr %8, align 8
  store ptr %23, ptr %24, align 8
  br label %25

25:                                               ; preds = %22, %14
  br label %26

26:                                               ; preds = %25
  %27 = load i32, ptr %7, align 4
  %28 = add nsw i32 %27, 1
  store i32 %28, ptr %7, align 4
  br label %9, !llvm.loop !8

29:                                               ; preds = %9
  ret void
}