; Function Attrs: mustprogress nofree norecurse nosync nounwind memory(readwrite, inaccessiblemem: none) uwtable
define hidden void @_ZN10StateSplit10substituteER9BlockListP10BlockBeginS3_(ptr nocapture noundef nonnull readonly align 8 dereferenceable(24) %0, ptr noundef readnone %1, ptr noundef %2) local_unnamed_addr #7 align 2 {
  %4 = load i32, ptr %0, align 8
  %5 = icmp sgt i32 %4, 0
  br i1 %5, label %.lr.ph, label %._crit_edge

.lr.ph:                                           ; preds = %3
  %6 = getelementptr inbounds i8, ptr %0, i64 8
  br label %7

7:                                                ; preds = %.lr.ph, %14
  %8 = phi i32 [ %4, %.lr.ph ], [ %15, %14 ]
  %indvars.iv = phi i64 [ 0, %.lr.ph ], [ %indvars.iv.next, %14 ]
  %9 = load ptr, ptr %6, align 8
  %10 = getelementptr inbounds ptr, ptr %9, i64 %indvars.iv
  %11 = load ptr, ptr %10, align 8
  %12 = icmp eq ptr %11, %1
  br i1 %12, label %13, label %14

13:                                               ; preds = %7
  store ptr %2, ptr %10, align 8
  %.pre = load i32, ptr %0, align 8
  br label %14

14:                                               ; preds = %7, %13
  %15 = phi i32 [ %8, %7 ], [ %.pre, %13 ]
  %indvars.iv.next = add nuw nsw i64 %indvars.iv, 1
  %16 = sext i32 %15 to i64
  %17 = icmp slt i64 %indvars.iv.next, %16
  br i1 %17, label %7, label %._crit_edge, !llvm.loop !8

._crit_edge:                                      ; preds = %14, %3
  ret void
}